target datalayout = "e-m:e-p270:32:32-p271:32:32-p272:64:64-i64:64-i128:128-f80:128-n8:16:32:64-S128"
target triple = "x86_64-pc-linux-gnu"

%struct.pmix_object_t = type { %union.pthread_mutex_t, ptr, i32, %struct.pmix_tma }
%struct.pmix_tma = type { ptr, ptr, ptr, ptr, ptr, ptr, ptr, ptr }
%union.pthread_mutex_t = type { %struct.__pthread_mutex_s }
%struct.__pthread_mutex_s = type { i32, i32, i32, i32, i32, i16, i16, %struct.__pthread_internal_list }
%struct.__pthread_internal_list = type { ptr, ptr }
%struct.pmix_proc = type { [256 x i8], i32 }
%struct.pmix_list_item_t = type { %struct.pmix_object_t, ptr, ptr, i32 }
%struct.pmix_event_hdlr_t = type { %struct.pmix_list_item_t, ptr, i64, i8, i8, ptr, %struct.pmix_proc, %struct.pmix_range_trkr_t, ptr, i64, ptr, ptr, ptr, i64 }
%struct.pmix_range_trkr_t = type { i8, ptr, i64 }

; Function Attrs: nounwind uwtable
define internal void @sevdes(ptr noundef %0) #0 {
  %2 = alloca ptr, align 8
  store ptr %0, ptr %2, align 8, !tbaa !15
  %3 = load ptr, ptr %2, align 8, !tbaa !15
  %4 = getelementptr inbounds nuw %struct.pmix_event_hdlr_t, ptr %3, i32 0, i32 1
  %5 = load ptr, ptr %4, align 8, !tbaa !201
  %6 = icmp ne ptr null, %5
  br i1 %6, label %7, label %11

7:                                                ; preds = %1
  %8 = load ptr, ptr %2, align 8, !tbaa !15
  %9 = getelementptr inbounds nuw %struct.pmix_event_hdlr_t, ptr %8, i32 0, i32 1
  %10 = load ptr, ptr %9, align 8, !tbaa !201
  call void @free(ptr noundef %10) #13
  br label %11

11:                                               ; preds = %7, %1
  %12 = load ptr, ptr %2, align 8, !tbaa !15
  %13 = getelementptr inbounds nuw %struct.pmix_event_hdlr_t, ptr %12, i32 0, i32 5
  %14 = load ptr, ptr %13, align 8, !tbaa !265
  %15 = icmp ne ptr null, %14
  br i1 %15, label %16, label %20

16:                                               ; preds = %11
  %17 = load ptr, ptr %2, align 8, !tbaa !15
  %18 = getelementptr inbounds nuw %struct.pmix_event_hdlr_t, ptr %17, i32 0, i32 5
  %19 = load ptr, ptr %18, align 8, !tbaa !265
  call void @free(ptr noundef %19) #13
  br label %20

20:                                               ; preds = %16, %11
  %21 = load ptr, ptr %2, align 8, !tbaa !15
  %22 = getelementptr inbounds nuw %struct.pmix_event_hdlr_t, ptr %21, i32 0, i32 7
  %23 = getelementptr inbounds nuw %struct.pmix_range_trkr_t, ptr %22, i32 0, i32 1
  %24 = load ptr, ptr %23, align 8, !tbaa !267
  %25 = icmp ne ptr null, %24
  br i1 %25, label %26, label %31

26:                                               ; preds = %20
  %27 = load ptr, ptr %2, align 8, !tbaa !15
  %28 = getelementptr inbounds nuw %struct.pmix_event_hdlr_t, ptr %27, i32 0, i32 7
  %29 = getelementptr inbounds nuw %struct.pmix_range_trkr_t, ptr %28, i32 0, i32 1
  %30 = load ptr, ptr %29, align 8, !tbaa !267
  call void @free(ptr noundef %30) #13
  br label %31

31:                                               ; preds = %26, %20
  %32 = load ptr, ptr %2, align 8, !tbaa !15
  %33 = getelementptr inbounds nuw %struct.pmix_event_hdlr_t, ptr %32, i32 0, i32 8
  %34 = load ptr, ptr %33, align 8, !tbaa !184
  %35 = icmp ne ptr null, %34
  br i1 %35, label %36, label %47

36:                                               ; preds = %31
  br label %37

37:                                               ; preds = %36
  %38 = load ptr, ptr %2, align 8, !tbaa !15
  %39 = getelementptr inbounds nuw %struct.pmix_event_hdlr_t, ptr %38, i32 0, i32 8
  %40 = load ptr, ptr %39, align 8, !tbaa !184
  %41 = load ptr, ptr %2, align 8, !tbaa !15
  %42 = getelementptr inbounds nuw %struct.pmix_event_hdlr_t, ptr %41, i32 0, i32 9
  %43 = load i64, ptr %42, align 8, !tbaa !185
  call void @PMIx_Proc_free(ptr noundef %40, i64 noundef %43)
  %44 = load ptr, ptr %2, align 8, !tbaa !15
  %45 = getelementptr inbounds nuw %struct.pmix_event_hdlr_t, ptr %44, i32 0, i32 8
  store ptr null, ptr %45, align 8, !tbaa !184
  br label %46

46:                                               ; preds = %37
  br label %47

47:                                               ; preds = %46, %31
  %48 = load ptr, ptr %2, align 8, !tbaa !15
  %49 = getelementptr inbounds nuw %struct.pmix_event_hdlr_t, ptr %48, i32 0, i32 12
  %50 = load ptr, ptr %49, align 8, !tbaa !183
  %51 = icmp ne ptr null, %50
  br i1 %51, label %52, label %56

52:                                               ; preds = %47
  %53 = load ptr, ptr %2, align 8, !tbaa !15
  %54 = getelementptr inbounds nuw %struct.pmix_event_hdlr_t, ptr %53, i32 0, i32 12
  %55 = load ptr, ptr %54, align 8, !tbaa !183
  call void @free(ptr noundef %55) #13
  br label %56

56:                                               ; preds = %52, %47
  ret void
}