; Function Attrs: nounwind uwtable
define internal void @sevdes(ptr noundef captures(none) %0) #0 {
  %2 = getelementptr inbounds nuw i8, ptr %0, i64 144
  %3 = load ptr, ptr %2, align 8, !tbaa !179
  %.not = icmp eq ptr %3, null
  br i1 %.not, label %5, label %4

4:                                                ; preds = %1
  tail call void @free(ptr noundef nonnull %3) #15
  br label %5

5:                                                ; preds = %4, %1
  %6 = getelementptr inbounds nuw i8, ptr %0, i64 168
  %7 = load ptr, ptr %6, align 8, !tbaa !232
  %.not16 = icmp eq ptr %7, null
  br i1 %.not16, label %9, label %8

8:                                                ; preds = %5
  tail call void @free(ptr noundef nonnull %7) #15
  br label %9

9:                                                ; preds = %8, %5
  %10 = getelementptr inbounds nuw i8, ptr %0, i64 448
  %11 = load ptr, ptr %10, align 8, !tbaa !234
  %.not17 = icmp eq ptr %11, null
  br i1 %.not17, label %13, label %12

12:                                               ; preds = %9
  tail call void @free(ptr noundef nonnull %11) #15
  br label %13

13:                                               ; preds = %12, %9
  %14 = getelementptr inbounds nuw i8, ptr %0, i64 464
  %15 = load ptr, ptr %14, align 8, !tbaa !163
  %.not18 = icmp eq ptr %15, null
  br i1 %.not18, label %19, label %16

16:                                               ; preds = %13
  %17 = getelementptr inbounds nuw i8, ptr %0, i64 472
  %18 = load i64, ptr %17, align 8, !tbaa !164
  tail call void @PMIx_Proc_free(ptr noundef nonnull %15, i64 noundef %18) #15
  store ptr null, ptr %14, align 8, !tbaa !163
  br label %19

19:                                               ; preds = %16, %13
  %20 = getelementptr inbounds nuw i8, ptr %0, i64 496
  %21 = load ptr, ptr %20, align 8, !tbaa !162
  %.not19 = icmp eq ptr %21, null
  br i1 %.not19, label %23, label %22

22:                                               ; preds = %19
  tail call void @free(ptr noundef nonnull %21) #15
  br label %23

23:                                               ; preds = %22, %19
  ret void
}